; Function Attrs: nounwind sspstrong uwtable
define internal void @block_dirty_bitmap_add_abort(ptr noundef readonly captures(none) %0) #0 {
  %2 = load ptr, ptr %0, align 8
  %.not = icmp eq ptr %2, null
  br i1 %.not, label %4, label %3

3:                                                ; preds = %1
  tail call void @bdrv_release_dirty_bitmap(ptr noundef nonnull %2) #14
  br label %4

4:                                                ; preds = %3, %1
  ret void
}